; Function Attrs: mustprogress nofree norecurse nosync nounwind willreturn memory(read, argmem: readwrite, inaccessiblemem: none) uwtable
define internal noundef i32 @H5EA__cache_dblk_page_image_len(ptr noundef readonly captures(none) %0, ptr noundef writeonly captures(none) %1) #1 {
  %3 = load i8, ptr @H5EA_init_g, align 1, !tbaa !3, !range !7, !noundef !8
  %4 = trunc nuw i8 %3 to i1
  %5 = load i8, ptr @H5_libterm_g, align 1, !range !7
  %6 = trunc nuw i8 %5 to i1
  %7 = xor i1 %6, true
  %8 = select i1 %4, i1 true, i1 %7
  br i1 %8, label %9, label %12, !prof !9

9:                                                ; preds = %2
  %10 = getelementptr inbounds nuw i8, ptr %0, i64 272
  %11 = load i64, ptr %10, align 8, !tbaa !154
  store i64 %11, ptr %1, align 8, !tbaa !15
  br label %12

12:                                               ; preds = %9, %2
  ret i32 0
}